; Function Attrs: mustprogress uwtable
define void @_ZNK32pxrInternal_v0_24__pxrReserved__22UsdSkelBlendShapeQuery13GetBlendShapeEm(ptr dead_on_unwind noalias writable sret(%"class.pxrInternal_v0_24__pxrReserved__::UsdSkelBlendShape") align 8 %0, ptr nocapture noundef nonnull readonly align 8 dereferenceable(104) %1, i64 noundef %2) local_unnamed_addr #0 align 2 personality ptr @__gxx_personality_v0 {
  %4 = alloca %"class.pxrInternal_v0_24__pxrReserved__::UsdPrim", align 8
  %5 = getelementptr inbounds nuw i8, ptr %1, i64 56
  %6 = getelementptr inbounds i8, ptr %1, i64 64
  %7 = load ptr, ptr %6, align 8
  %8 = load ptr, ptr %5, align 8
  %9 = ptrtoint ptr %7 to i64
  %10 = ptrtoint ptr %8 to i64
  %11 = sub i64 %9, %10
  %12 = sdiv exact i64 %11, 40
  %.not = icmp ult i64 %2, %12
  br i1 %.not, label %.thread, label %14

.thread:                                          ; preds = %3
  %13 = getelementptr inbounds %"struct.pxrInternal_v0_24__pxrReserved__::UsdSkelBlendShapeQuery::_BlendShape", ptr %8, i64 %2
  tail call void @_ZN32pxrInternal_v0_24__pxrReserved__13UsdSchemaBaseC2ERKS0_(ptr noundef nonnull align 8 dereferenceable(24) %0, ptr noundef nonnull align 8 dereferenceable(24) %13)
  store ptr getelementptr inbounds inrange(-16, 48) (i8, ptr @_ZTVN32pxrInternal_v0_24__pxrReserved__17UsdSkelBlendShapeE, i64 16), ptr %0, align 8
  br label %_ZN32pxrInternal_v0_24__pxrReserved__7UsdPrimD2Ev.exit

14:                                               ; preds = %3
  store i32 1, ptr %4, align 8
  %15 = getelementptr inbounds nuw i8, ptr %4, i64 8
  call void @llvm.memset.p0.i64(ptr noundef nonnull align 8 dereferenceable(24) %15, i8 0, i64 24, i1 false)
  invoke void @_ZN32pxrInternal_v0_24__pxrReserved__13UsdSchemaBaseC2ERKNS_7UsdPrimE(ptr noundef nonnull align 8 dereferenceable(24) %0, ptr noundef nonnull align 8 dereferenceable(32) %4)
          to label %16 unwind label %49

16:                                               ; preds = %14
  store ptr getelementptr inbounds inrange(-16, 48) (i8, ptr @_ZTVN32pxrInternal_v0_24__pxrReserved__17UsdSkelBlendShapeE, i64 16), ptr %0, align 8
  %17 = getelementptr inbounds nuw i8, ptr %4, i64 24
  %18 = load ptr, ptr %17, align 8
  %19 = ptrtoint ptr %18 to i64
  %20 = and i64 %19, 7
  %.not.i.i.i.i = icmp eq i64 %20, 0
  br i1 %.not.i.i.i.i, label %_ZN32pxrInternal_v0_24__pxrReserved__7TfTokenD2Ev.exit.i.i, label %21

21:                                               ; preds = %16
  %22 = and i64 %19, -8
  %23 = inttoptr i64 %22 to ptr
  %24 = atomicrmw sub ptr %23, i32 2 release, align 4
  br label %_ZN32pxrInternal_v0_24__pxrReserved__7TfTokenD2Ev.exit.i.i

_ZN32pxrInternal_v0_24__pxrReserved__7TfTokenD2Ev.exit.i.i: ; preds = %21, %16
  %25 = getelementptr inbounds nuw i8, ptr %4, i64 16
  %26 = load i32, ptr %25, align 8
  %.not.i.i1.i.i = icmp eq i32 %26, 0
  br i1 %.not.i.i1.i.i, label %_ZN32pxrInternal_v0_24__pxrReserved__7SdfPathD2Ev.exit.i.i, label %27

27:                                               ; preds = %_ZN32pxrInternal_v0_24__pxrReserved__7TfTokenD2Ev.exit.i.i
  %28 = and i32 %26, 255
  %29 = lshr i32 %26, 8
  %30 = zext nneg i32 %28 to i64
  %31 = getelementptr inbounds [257 x ptr], ptr @_ZN32pxrInternal_v0_24__pxrReserved__8Sdf_PoolINS_15Sdf_PathPrimTagELj24ELj8ELj16384EE13_regionStartsE, i64 0, i64 %30
  %32 = load ptr, ptr %31, align 8
  %33 = mul nuw nsw i32 %29, 24
  %34 = zext nneg i32 %33 to i64
  %35 = getelementptr inbounds i8, ptr %32, i64 %34
  %36 = getelementptr inbounds nuw i8, ptr %35, i64 8
  %37 = atomicrmw sub ptr %36, i32 1 seq_cst, align 4
  %38 = and i32 %37, 2147483647
  %39 = icmp eq i32 %38, 1
  br i1 %39, label %40, label %_ZN32pxrInternal_v0_24__pxrReserved__7SdfPathD2Ev.exit.i.i

40:                                               ; preds = %27
  invoke void @_ZNK32pxrInternal_v0_24__pxrReserved__12Sdf_PathNode8_DestroyEv(ptr noundef nonnull align 8 dereferenceable(16) %35)
          to label %_ZN32pxrInternal_v0_24__pxrReserved__7SdfPathD2Ev.exit.i.i unwind label %41

41:                                               ; preds = %40
  %42 = landingpad { ptr, i32 }
          catch ptr null
  %43 = extractvalue { ptr, i32 } %42, 0
  call void @__clang_call_terminate(ptr %43) #19
  unreachable

_ZN32pxrInternal_v0_24__pxrReserved__7SdfPathD2Ev.exit.i.i: ; preds = %40, %27, %_ZN32pxrInternal_v0_24__pxrReserved__7TfTokenD2Ev.exit.i.i
  %44 = load ptr, ptr %15, align 8
  %.not.i.i.i.i.i = icmp eq ptr %44, null
  br i1 %.not.i.i.i.i.i, label %_ZN32pxrInternal_v0_24__pxrReserved__7UsdPrimD2Ev.exit, label %45

45:                                               ; preds = %_ZN32pxrInternal_v0_24__pxrReserved__7SdfPathD2Ev.exit.i.i
  %46 = getelementptr inbounds nuw i8, ptr %44, i64 48
  %47 = atomicrmw sub ptr %46, i64 1 release, align 8
  %.not1.i.i.i.i.i = icmp eq i64 %47, 1
  br i1 %.not1.i.i.i.i.i, label %48, label %_ZN32pxrInternal_v0_24__pxrReserved__7UsdPrimD2Ev.exit

48:                                               ; preds = %45
  call void @_ZN32pxrInternal_v0_24__pxrReserved__12Usd_PrimDataD1Ev(ptr noundef nonnull align 8 dereferenceable(64) %44) #18
  call void @_ZdlPvm(ptr noundef nonnull %44, i64 noundef 64) #20
  br label %_ZN32pxrInternal_v0_24__pxrReserved__7UsdPrimD2Ev.exit

_ZN32pxrInternal_v0_24__pxrReserved__7UsdPrimD2Ev.exit: ; preds = %48, %45, %_ZN32pxrInternal_v0_24__pxrReserved__7SdfPathD2Ev.exit.i.i, %.thread
  ret void

49:                                               ; preds = %14
  %50 = landingpad { ptr, i32 }
          cleanup
  call void @_ZN32pxrInternal_v0_24__pxrReserved__7UsdPrimD2Ev(ptr noundef nonnull align 8 dereferenceable(32) %4) #18
  resume { ptr, i32 } %50
}